target datalayout = "e-m:e-p270:32:32-p271:32:32-p272:64:64-i64:64-i128:128-f80:128-n8:16:32:64-S128"
target triple = "x86_64-pc-linux-gnu"

%struct.ExpandedRecordHeader = type { %struct.ExpandedObjectHeader, i32, i32, i32, i32, i32, ptr, i64, ptr, ptr, i32, i64, i64, i32, i8, ptr, ptr, ptr, ptr, ptr, ptr, %struct.MemoryContextCallback }
%struct.ExpandedObjectHeader = type { i32, ptr, ptr, [10 x i8], [10 x i8] }
%struct.MemoryContextCallback = type { ptr, ptr, ptr }
%struct.HeapTupleData = type { i32, %struct.ItemPointerData, i32, ptr }
%struct.ItemPointerData = type { %struct.BlockIdData, i16 }
%struct.BlockIdData = type { i16, i16 }
%struct.HeapTupleHeaderData = type { %union.anon, %struct.ItemPointerData, i16, i16, i8, [0 x i8] }
%union.anon = type { %struct.HeapTupleFields }
%struct.HeapTupleFields = type { i32, i32, %union.anon.0 }
%union.anon.0 = type { i32 }

@CurrentMemoryContext = external global ptr, align 8
@.str.4 = private unnamed_addr constant [35 x i8] c"expanded record short-term context\00", align 1

; Function Attrs: inlinehint nounwind uwtable
define internal i64 @PointerGetDatum(ptr noundef %0) #5 {
  %2 = alloca ptr, align 8
  store ptr %0, ptr %2, align 8
  %3 = load ptr, ptr %2, align 8
  %4 = ptrtoint ptr %3 to i64
  ret i64 %4
}

; Function Attrs: inlinehint nounwind uwtable
define internal i64 @EOHPGetRODatum(ptr noundef %0) #5 {
  %2 = alloca ptr, align 8
  store ptr %0, ptr %2, align 8
  %3 = load ptr, ptr %2, align 8
  %4 = getelementptr inbounds nuw %struct.ExpandedObjectHeader, ptr %3, i32 0, i32 4
  %5 = getelementptr inbounds [10 x i8], ptr %4, i64 0, i64 0
  %6 = call i64 @PointerGetDatum(ptr noundef %5)
  ret i64 %6
}

; Function Attrs: inlinehint nounwind uwtable
define internal i64 @ExpandedRecordGetRODatum(ptr noundef %0) #5 {
  %2 = alloca ptr, align 8
  store ptr %0, ptr %2, align 8
  %3 = load ptr, ptr %2, align 8
  %4 = getelementptr inbounds nuw %struct.ExpandedRecordHeader, ptr %3, i32 0, i32 0
  %5 = call i64 @EOHPGetRODatum(ptr noundef %4)
  ret i64 %5
}

; Function Attrs: inlinehint nounwind uwtable
define internal zeroext i1 @HeapTupleHasExternal(ptr noundef %0) #5 {
  %2 = alloca ptr, align 8
  store ptr %0, ptr %2, align 8
  %3 = load ptr, ptr %2, align 8
  %4 = getelementptr inbounds nuw %struct.HeapTupleData, ptr %3, i32 0, i32 3
  %5 = load ptr, ptr %4, align 8
  %6 = getelementptr inbounds nuw %struct.HeapTupleHeaderData, ptr %5, i32 0, i32 3
  %7 = load i16, ptr %6, align 4
  %8 = zext i16 %7 to i32
  %9 = and i32 %8, 4
  %10 = icmp ne i32 %9, 0
  ret i1 %10
}

; Function Attrs: inlinehint nounwind uwtable
define internal ptr @MemoryContextSwitchTo(ptr noundef %0) #5 {
  %2 = alloca ptr, align 8
  %3 = alloca ptr, align 8
  store ptr %0, ptr %2, align 8
  call void @llvm.lifetime.start.p0(i64 8, ptr %3) #9
  %4 = load ptr, ptr @CurrentMemoryContext, align 8
  store ptr %4, ptr %3, align 8
  %5 = load ptr, ptr %2, align 8
  store ptr %5, ptr @CurrentMemoryContext, align 8
  %6 = load ptr, ptr %3, align 8
  call void @llvm.lifetime.end.p0(i64 8, ptr %3) #9
  ret ptr %6
}

; Function Attrs: nounwind uwtable
define internal ptr @get_short_term_cxt(ptr noundef %0) #0 {
  %2 = alloca ptr, align 8
  %3 = alloca i32, align 4
  store ptr %0, ptr %2, align 8
  %4 = load ptr, ptr %2, align 8
  %5 = getelementptr inbounds nuw %struct.ExpandedRecordHeader, ptr %4, i32 0, i32 18
  %6 = load ptr, ptr %5, align 8
  %7 = icmp eq ptr %6, null
  br i1 %7, label %8, label %18

8:                                                ; preds = %1
  br label %9

9:                                                ; preds = %8
  br label %10

10:                                               ; preds = %9
  store i32 1, ptr %3, align 4
  %11 = load ptr, ptr %2, align 8
  %12 = getelementptr inbounds nuw %struct.ExpandedRecordHeader, ptr %11, i32 0, i32 0
  %13 = getelementptr inbounds nuw %struct.ExpandedObjectHeader, ptr %12, i32 0, i32 2
  %14 = load ptr, ptr %13, align 8
  %15 = call ptr @AllocSetContextCreateInternal(ptr noundef %14, ptr noundef @.str.4, i64 noundef 0, i64 noundef 1024, i64 noundef 8192)
  %16 = load ptr, ptr %2, align 8
  %17 = getelementptr inbounds nuw %struct.ExpandedRecordHeader, ptr %16, i32 0, i32 18
  store ptr %15, ptr %17, align 8
  br label %22

18:                                               ; preds = %1
  %19 = load ptr, ptr %2, align 8
  %20 = getelementptr inbounds nuw %struct.ExpandedRecordHeader, ptr %19, i32 0, i32 18
  %21 = load ptr, ptr %20, align 8
  call void @MemoryContextReset(ptr noundef %21)
  br label %22

22:                                               ; preds = %18, %10
  %23 = load ptr, ptr %2, align 8
  %24 = getelementptr inbounds nuw %struct.ExpandedRecordHeader, ptr %23, i32 0, i32 18
  %25 = load ptr, ptr %24, align 8
  ret ptr %25
}

; Function Attrs: noinline nounwind uwtable
define internal void @check_domain_for_new_tuple(ptr noundef %0, ptr noundef %1) #6 {
  %3 = alloca ptr, align 8
  %4 = alloca ptr, align 8
  %5 = alloca ptr, align 8
  %6 = alloca ptr, align 8
  %7 = alloca i32, align 4
  store ptr %0, ptr %3, align 8
  store ptr %1, ptr %4, align 8
  call void @llvm.lifetime.start.p0(i64 8, ptr %5) #9
  call void @llvm.lifetime.start.p0(i64 8, ptr %6) #9
  %8 = load ptr, ptr %4, align 8
  %9 = icmp eq ptr %8, null
  br i1 %9, label %10, label %28

10:                                               ; preds = %2
  %11 = load ptr, ptr %3, align 8
  %12 = call ptr @get_short_term_cxt(ptr noundef %11)
  %13 = call ptr @MemoryContextSwitchTo(ptr noundef %12)
  store ptr %13, ptr %6, align 8
  %14 = load ptr, ptr %3, align 8
  %15 = getelementptr inbounds nuw %struct.ExpandedRecordHeader, ptr %14, i32 0, i32 3
  %16 = load i32, ptr %15, align 8
  %17 = load ptr, ptr %3, align 8
  %18 = getelementptr inbounds nuw %struct.ExpandedRecordHeader, ptr %17, i32 0, i32 20
  %19 = load ptr, ptr %3, align 8
  %20 = getelementptr inbounds nuw %struct.ExpandedRecordHeader, ptr %19, i32 0, i32 0
  %21 = getelementptr inbounds nuw %struct.ExpandedObjectHeader, ptr %20, i32 0, i32 2
  %22 = load ptr, ptr %21, align 8
  call void @domain_check(i64 noundef 0, i1 noundef zeroext true, i32 noundef %16, ptr noundef %18, ptr noundef %22)
  %23 = load ptr, ptr %6, align 8
  %24 = call ptr @MemoryContextSwitchTo(ptr noundef %23)
  %25 = load ptr, ptr %3, align 8
  %26 = getelementptr inbounds nuw %struct.ExpandedRecordHeader, ptr %25, i32 0, i32 18
  %27 = load ptr, ptr %26, align 8
  call void @MemoryContextReset(ptr noundef %27)
  store i32 1, ptr %7, align 4
  br label %83

28:                                               ; preds = %2
  %29 = load ptr, ptr %3, align 8
  call void @build_dummy_expanded_header(ptr noundef %29)
  %30 = load ptr, ptr %3, align 8
  %31 = getelementptr inbounds nuw %struct.ExpandedRecordHeader, ptr %30, i32 0, i32 19
  %32 = load ptr, ptr %31, align 8
  store ptr %32, ptr %5, align 8
  %33 = load ptr, ptr %4, align 8
  %34 = load ptr, ptr %5, align 8
  %35 = getelementptr inbounds nuw %struct.ExpandedRecordHeader, ptr %34, i32 0, i32 15
  store ptr %33, ptr %35, align 8
  %36 = load ptr, ptr %4, align 8
  %37 = getelementptr inbounds nuw %struct.HeapTupleData, ptr %36, i32 0, i32 3
  %38 = load ptr, ptr %37, align 8
  %39 = load ptr, ptr %5, align 8
  %40 = getelementptr inbounds nuw %struct.ExpandedRecordHeader, ptr %39, i32 0, i32 16
  store ptr %38, ptr %40, align 8
  %41 = load ptr, ptr %4, align 8
  %42 = getelementptr inbounds nuw %struct.HeapTupleData, ptr %41, i32 0, i32 3
  %43 = load ptr, ptr %42, align 8
  %44 = load ptr, ptr %4, align 8
  %45 = getelementptr inbounds nuw %struct.HeapTupleData, ptr %44, i32 0, i32 0
  %46 = load i32, ptr %45, align 8
  %47 = zext i32 %46 to i64
  %48 = getelementptr inbounds nuw i8, ptr %43, i64 %47
  %49 = load ptr, ptr %5, align 8
  %50 = getelementptr inbounds nuw %struct.ExpandedRecordHeader, ptr %49, i32 0, i32 17
  store ptr %48, ptr %50, align 8
  %51 = load ptr, ptr %5, align 8
  %52 = getelementptr inbounds nuw %struct.ExpandedRecordHeader, ptr %51, i32 0, i32 2
  %53 = load i32, ptr %52, align 4
  %54 = or i32 %53, 1
  store i32 %54, ptr %52, align 4
  %55 = load ptr, ptr %4, align 8
  %56 = call zeroext i1 @HeapTupleHasExternal(ptr noundef %55)
  br i1 %56, label %57, label %62

57:                                               ; preds = %28
  %58 = load ptr, ptr %5, align 8
  %59 = getelementptr inbounds nuw %struct.ExpandedRecordHeader, ptr %58, i32 0, i32 2
  %60 = load i32, ptr %59, align 4
  %61 = or i32 %60, 16
  store i32 %61, ptr %59, align 4
  br label %62

62:                                               ; preds = %57, %28
  %63 = load ptr, ptr %3, align 8
  %64 = getelementptr inbounds nuw %struct.ExpandedRecordHeader, ptr %63, i32 0, i32 18
  %65 = load ptr, ptr %64, align 8
  %66 = call ptr @MemoryContextSwitchTo(ptr noundef %65)
  store ptr %66, ptr %6, align 8
  %67 = load ptr, ptr %5, align 8
  %68 = call i64 @ExpandedRecordGetRODatum(ptr noundef %67)
  %69 = load ptr, ptr %3, align 8
  %70 = getelementptr inbounds nuw %struct.ExpandedRecordHeader, ptr %69, i32 0, i32 3
  %71 = load i32, ptr %70, align 8
  %72 = load ptr, ptr %3, align 8
  %73 = getelementptr inbounds nuw %struct.ExpandedRecordHeader, ptr %72, i32 0, i32 20
  %74 = load ptr, ptr %3, align 8
  %75 = getelementptr inbounds nuw %struct.ExpandedRecordHeader, ptr %74, i32 0, i32 0
  %76 = getelementptr inbounds nuw %struct.ExpandedObjectHeader, ptr %75, i32 0, i32 2
  %77 = load ptr, ptr %76, align 8
  call void @domain_check(i64 noundef %68, i1 noundef zeroext false, i32 noundef %71, ptr noundef %73, ptr noundef %77)
  %78 = load ptr, ptr %6, align 8
  %79 = call ptr @MemoryContextSwitchTo(ptr noundef %78)
  %80 = load ptr, ptr %3, align 8
  %81 = getelementptr inbounds nuw %struct.ExpandedRecordHeader, ptr %80, i32 0, i32 18
  %82 = load ptr, ptr %81, align 8
  call void @MemoryContextReset(ptr noundef %82)
  store i32 0, ptr %7, align 4
  br label %83

83:                                               ; preds = %62, %10
  call void @llvm.lifetime.end.p0(i64 8, ptr %6) #9
  call void @llvm.lifetime.end.p0(i64 8, ptr %5) #9
  %84 = load i32, ptr %7, align 4
  switch i32 %84, label %86 [
    i32 0, label %85
    i32 1, label %85
  ]

85:                                               ; preds = %83, %83
  ret void

86:                                               ; preds = %83
  unreachable
}