; Function Attrs: noinline nounwind uwtable
define internal fastcc void @check_domain_for_new_tuple(ptr noundef %0, ptr noundef %1) unnamed_addr #5 {
  %3 = icmp eq ptr %1, null
  br i1 %3, label %4, label %20

4:                                                ; preds = %2
  %5 = getelementptr inbounds nuw i8, ptr %0, i64 160
  %6 = load ptr, ptr %5, align 8
  %7 = icmp eq ptr %6, null
  br i1 %7, label %8, label %12

8:                                                ; preds = %4
  %9 = getelementptr inbounds nuw i8, ptr %0, i64 16
  %10 = load ptr, ptr %9, align 8
  %11 = tail call ptr @AllocSetContextCreateInternal(ptr noundef %10, ptr noundef nonnull @.str.4, i64 noundef 0, i64 noundef 1024, i64 noundef 8192) #8
  store ptr %11, ptr %5, align 8
  br label %get_short_term_cxt.exit

12:                                               ; preds = %4
  tail call void @MemoryContextReset(ptr noundef nonnull %6) #8
  %.pre.i = load ptr, ptr %5, align 8
  br label %get_short_term_cxt.exit

get_short_term_cxt.exit:                          ; preds = %8, %12
  %13 = phi ptr [ %.pre.i, %12 ], [ %11, %8 ]
  %14 = load ptr, ptr @CurrentMemoryContext, align 8
  store ptr %13, ptr @CurrentMemoryContext, align 8
  %15 = getelementptr inbounds nuw i8, ptr %0, i64 56
  %16 = load i32, ptr %15, align 8
  %17 = getelementptr inbounds nuw i8, ptr %0, i64 176
  %18 = getelementptr inbounds nuw i8, ptr %0, i64 16
  %19 = load ptr, ptr %18, align 8
  tail call void @domain_check(i64 noundef 0, i1 noundef zeroext true, i32 noundef %16, ptr noundef nonnull %17, ptr noundef %19) #8
  br label %49

20:                                               ; preds = %2
  tail call fastcc void @build_dummy_expanded_header(ptr noundef %0)
  %21 = getelementptr inbounds nuw i8, ptr %0, i64 168
  %22 = load ptr, ptr %21, align 8
  %23 = getelementptr inbounds nuw i8, ptr %22, i64 136
  store ptr %1, ptr %23, align 8
  %24 = getelementptr inbounds nuw i8, ptr %1, i64 16
  %25 = load ptr, ptr %24, align 8
  %26 = getelementptr inbounds nuw i8, ptr %22, i64 144
  store ptr %25, ptr %26, align 8
  %27 = load i32, ptr %1, align 8
  %28 = zext i32 %27 to i64
  %29 = getelementptr inbounds nuw i8, ptr %25, i64 %28
  %30 = getelementptr inbounds nuw i8, ptr %22, i64 152
  store ptr %29, ptr %30, align 8
  %31 = getelementptr inbounds nuw i8, ptr %22, i64 52
  %32 = load i32, ptr %31, align 4
  %33 = or i32 %32, 1
  store i32 %33, ptr %31, align 4
  %.val = load ptr, ptr %24, align 8
  %34 = getelementptr i8, ptr %.val, i64 20
  %.val.val = load i16, ptr %34, align 4
  %35 = and i16 %.val.val, 4
  %.not = icmp eq i16 %35, 0
  br i1 %.not, label %38, label %36

36:                                               ; preds = %20
  %37 = or i32 %32, 17
  store i32 %37, ptr %31, align 4
  br label %38

38:                                               ; preds = %36, %20
  %39 = getelementptr inbounds nuw i8, ptr %0, i64 160
  %40 = load ptr, ptr %39, align 8
  %41 = load ptr, ptr @CurrentMemoryContext, align 8
  store ptr %40, ptr @CurrentMemoryContext, align 8
  %42 = getelementptr inbounds nuw i8, ptr %22, i64 34
  %43 = ptrtoint ptr %42 to i64
  %44 = getelementptr inbounds nuw i8, ptr %0, i64 56
  %45 = load i32, ptr %44, align 8
  %46 = getelementptr inbounds nuw i8, ptr %0, i64 176
  %47 = getelementptr inbounds nuw i8, ptr %0, i64 16
  %48 = load ptr, ptr %47, align 8
  tail call void @domain_check(i64 noundef %43, i1 noundef zeroext false, i32 noundef %45, ptr noundef nonnull %46, ptr noundef %48) #8
  br label %49

49:                                               ; preds = %38, %get_short_term_cxt.exit
  %storemerge = phi ptr [ %41, %38 ], [ %14, %get_short_term_cxt.exit ]
  %.sink.in = phi ptr [ %39, %38 ], [ %5, %get_short_term_cxt.exit ]
  store ptr %storemerge, ptr @CurrentMemoryContext, align 8
  %.sink = load ptr, ptr %.sink.in, align 8
  tail call void @MemoryContextReset(ptr noundef %.sink) #8
  ret void
}